; Function Attrs: nounwind uwtable
define internal noalias ptr @H5B2__test_crt_context(ptr noundef %0) #0 {
  %2 = load i8, ptr @H5B2_init_g, align 1, !tbaa !3, !range !7, !noundef !8
  %3 = trunc nuw i8 %2 to i1
  %4 = load i8, ptr @H5_libterm_g, align 1, !range !7
  %5 = trunc nuw i8 %4 to i1
  %6 = xor i1 %5, true
  %7 = select i1 %3, i1 true, i1 %6
  br i1 %7, label %8, label %17, !prof !9

8:                                                ; preds = %1
  %9 = tail call noalias ptr @H5FL_reg_malloc(ptr noundef nonnull @H5_H5B2_test_ctx_t_reg_free_list) #8
  %10 = icmp eq ptr %9, null
  br i1 %10, label %11, label %15

11:                                               ; preds = %8
  %12 = load i64, ptr @H5E_BTREE_g, align 8, !tbaa !10
  %13 = load i64, ptr @H5E_CANTALLOC_g, align 8, !tbaa !10
  %14 = tail call i32 (ptr, ptr, i32, i64, i64, ptr, ...) @H5E_printf_stack(ptr noundef nonnull @.str.2, ptr noundef nonnull @__func__.H5B2__test_crt_context, i32 noundef 141, i64 noundef %12, i64 noundef %13, ptr noundef nonnull @.str.11) #8
  br label %17

15:                                               ; preds = %8
  %16 = tail call zeroext i8 @H5F_sizeof_size(ptr noundef %0) #8
  store i8 %16, ptr %9, align 1, !tbaa !12
  br label %17

17:                                               ; preds = %11, %15, %1
  %.0 = phi ptr [ null, %11 ], [ %9, %15 ], [ null, %1 ]
  ret ptr %.0
}